; Function Attrs: nofree norecurse nosync nounwind memory(write, argmem: read, inaccessiblemem: none) uwtable
define noundef nonnull ptr @Dau_EnumLift(ptr noundef readonly captures(none) %0, i32 noundef %1) local_unnamed_addr #0 {
  %3 = load i8, ptr %0, align 1, !tbaa !3
  %.not12 = icmp eq i8 %3, 0
  br i1 %.not12, label %._crit_edge, label %.lr.ph

.lr.ph:                                           ; preds = %2
  %4 = trunc i32 %1 to i8
  br label %5

5:                                                ; preds = %.lr.ph, %5
  %6 = phi i8 [ %3, %.lr.ph ], [ %12, %5 ]
  %.014 = phi ptr [ @Dau_EnumLift.pBuffer, %.lr.ph ], [ %10, %5 ]
  %.0913 = phi ptr [ %0, %.lr.ph ], [ %11, %5 ]
  %7 = add i8 %6, -97
  %or.cond = icmp ult i8 %7, 26
  %8 = select i1 %or.cond, i8 %4, i8 0
  %9 = add i8 %8, %6
  store i8 %9, ptr %.014, align 1, !tbaa !3
  %10 = getelementptr inbounds nuw i8, ptr %.014, i64 1
  %11 = getelementptr inbounds nuw i8, ptr %.0913, i64 1
  %12 = load i8, ptr %11, align 1, !tbaa !3
  %.not = icmp eq i8 %12, 0
  br i1 %.not, label %._crit_edge, label %5, !llvm.loop !6

._crit_edge:                                      ; preds = %5, %2
  %.0.lcssa = phi ptr [ @Dau_EnumLift.pBuffer, %2 ], [ %10, %5 ]
  store i8 0, ptr %.0.lcssa, align 1, !tbaa !3
  ret ptr @Dau_EnumLift.pBuffer
}